target datalayout = "e-m:e-p270:32:32-p271:32:32-p272:64:64-i64:64-i128:128-f80:128-n8:16:32:64-S128"
target triple = "x86_64-unknown-linux-gnu"

%"class.v8::IndirectHandleBase" = type { ptr }
%"class.v8::Local" = type { %"class.v8::LocalBase" }
%"class.v8::LocalBase" = type { %"class.v8::IndirectHandleBase" }
%"class.v8::Maybe" = type { i8, i8 }

; Function Attrs: mustprogress nounwind uwtable
define linkonce_odr dso_local void @_ZN2v85MaybeIbEC2Ev(ptr noundef nonnull align 1 dereferenceable(2) %this) unnamed_addr #4 comdat align 2 {
entry:
  %this.addr = alloca ptr, align 8
  store ptr %this, ptr %this.addr, align 8
  %this1 = load ptr, ptr %this.addr, align 8
  %has_value_ = getelementptr inbounds %"class.v8::Maybe", ptr %this1, i32 0, i32 0
  store i8 0, ptr %has_value_, align 1
  ret void
}

; Function Attrs: mustprogress nounwind uwtable
define linkonce_odr dso_local i16 @_ZN2v87NothingIbEENS_5MaybeIT_EEv() #4 comdat {
entry:
  %retval = alloca %"class.v8::Maybe", align 1
  call void @_ZN2v85MaybeIbEC2Ev(ptr noundef nonnull align 1 dereferenceable(2) %retval)
  %0 = load i16, ptr %retval, align 1
  ret i16 %0
}

; Function Attrs: mustprogress nounwind uwtable
define dso_local i16 @_ZN4node17InitializeContextEN2v85LocalINS0_7ContextEEE(ptr %context.coerce) #4 {
entry:
  %this.addr.i = alloca ptr, align 8
  %retval = alloca %"class.v8::Maybe", align 1
  %context = alloca %"class.v8::Local", align 8
  %ref.tmp = alloca %"class.v8::Maybe", align 1
  %agg.tmp = alloca %"class.v8::Local", align 8
  %agg.tmp8 = alloca %"class.v8::Local", align 8
  %coerce.dive = getelementptr inbounds %"class.v8::Local", ptr %context, i32 0, i32 0
  %coerce.dive1 = getelementptr inbounds %"class.v8::LocalBase", ptr %coerce.dive, i32 0, i32 0
  %coerce.dive2 = getelementptr inbounds %"class.v8::IndirectHandleBase", ptr %coerce.dive1, i32 0, i32 0
  store ptr %context.coerce, ptr %coerce.dive2, align 8
  call void @llvm.memcpy.p0.p0.i64(ptr align 8 %agg.tmp, ptr align 8 %context, i64 8, i1 false)
  %coerce.dive3 = getelementptr inbounds %"class.v8::Local", ptr %agg.tmp, i32 0, i32 0
  %coerce.dive4 = getelementptr inbounds %"class.v8::LocalBase", ptr %coerce.dive3, i32 0, i32 0
  %coerce.dive5 = getelementptr inbounds %"class.v8::IndirectHandleBase", ptr %coerce.dive4, i32 0, i32 0
  %0 = load ptr, ptr %coerce.dive5, align 8
  %call = call i16 @_ZN4node32InitializeMainContextForSnapshotEN2v85LocalINS0_7ContextEEE(ptr %0)
  store i16 %call, ptr %ref.tmp, align 1
  store ptr %ref.tmp, ptr %this.addr.i, align 8
  %this1.i = load ptr, ptr %this.addr.i, align 8
  %1 = load i8, ptr %this1.i, align 1
  %tobool.i = trunc i8 %1 to i1
  %lnot.i = xor i1 %tobool.i, true
  br i1 %lnot.i, label %if.then, label %if.end

if.then:                                          ; preds = %entry
  %call7 = call i16 @_ZN2v87NothingIbEENS_5MaybeIT_EEv()
  store i16 %call7, ptr %retval, align 1
  br label %return

if.end:                                           ; preds = %entry
  call void @llvm.memcpy.p0.p0.i64(ptr align 8 %agg.tmp8, ptr align 8 %context, i64 8, i1 false)
  %coerce.dive9 = getelementptr inbounds %"class.v8::Local", ptr %agg.tmp8, i32 0, i32 0
  %coerce.dive10 = getelementptr inbounds %"class.v8::LocalBase", ptr %coerce.dive9, i32 0, i32 0
  %coerce.dive11 = getelementptr inbounds %"class.v8::IndirectHandleBase", ptr %coerce.dive10, i32 0, i32 0
  %2 = load ptr, ptr %coerce.dive11, align 8
  %call12 = call i16 @_ZN4node24InitializeContextRuntimeEN2v85LocalINS0_7ContextEEE(ptr %2)
  store i16 %call12, ptr %retval, align 1
  br label %return

return:                                           ; preds = %if.end, %if.then
  %3 = load i16, ptr %retval, align 1
  ret i16 %3
}