; Function Attrs: mustprogress nounwind uwtable
define dso_local noundef i16 @_ZN4node17InitializeContextEN2v85LocalINS0_7ContextEEE(ptr %context.coerce) local_unnamed_addr #3 {
entry:
  %call = tail call i16 @_ZN4node32InitializeMainContextForSnapshotEN2v85LocalINS0_7ContextEEE(ptr %context.coerce)
  %0 = and i16 %call, 1
  %tobool.i.not = icmp eq i16 %0, 0
  br i1 %tobool.i.not, label %return, label %if.end

if.end:                                           ; preds = %entry
  %call12 = tail call i16 @_ZN4node24InitializeContextRuntimeEN2v85LocalINS0_7ContextEEE(ptr %context.coerce)
  br label %return

return:                                           ; preds = %entry, %if.end
  %retval.sroa.0.0 = phi i16 [ %call12, %if.end ], [ 0, %entry ]
  ret i16 %retval.sroa.0.0
}